target datalayout = "e-m:e-p270:32:32-p271:32:32-p272:64:64-i64:64-i128:128-f80:128-n8:16:32:64-S128"
target triple = "x86_64-pc-linux-gnu"

%struct.OSSL_TIME = type { i64 }

@.str.8 = private unnamed_addr constant [29 x i8] c"../openssl/test/sanitytest.c\00", align 1
@.str.28 = private unnamed_addr constant [2 x i8] c"1\00", align 1
@.str.51 = private unnamed_addr constant [8 x i8] c"seconds\00", align 1
@.str.52 = private unnamed_addr constant [3 x i8] c"20\00", align 1

; Function Attrs: inlinehint nounwind uwtable
define internal i64 @ossl_ticks2time(i64 noundef %0) #4 {
  %2 = alloca %struct.OSSL_TIME, align 8
  %3 = alloca i64, align 8
  store i64 %0, ptr %3, align 8, !tbaa !9
  %4 = load i64, ptr %3, align 8, !tbaa !9
  %5 = getelementptr inbounds nuw %struct.OSSL_TIME, ptr %2, i32 0, i32 0
  store i64 %4, ptr %5, align 8, !tbaa !11
  %6 = getelementptr inbounds nuw %struct.OSSL_TIME, ptr %2, i32 0, i32 0
  %7 = load i64, ptr %6, align 8
  ret i64 %7
}

; Function Attrs: inlinehint nounwind uwtable
define internal i64 @ossl_time_zero() #4 {
  %1 = alloca %struct.OSSL_TIME, align 8
  %2 = call i64 @ossl_ticks2time(i64 noundef 0)
  %3 = getelementptr inbounds nuw %struct.OSSL_TIME, ptr %1, i32 0, i32 0
  store i64 %2, ptr %3, align 8
  %4 = getelementptr inbounds nuw %struct.OSSL_TIME, ptr %1, i32 0, i32 0
  %5 = load i64, ptr %4, align 8
  ret i64 %5
}

; Function Attrs: inlinehint nounwind uwtable
define internal i64 @safe_sub_time(i64 noundef %0, i64 noundef %1, ptr noundef %2) #4 {
  %4 = alloca i64, align 8
  %5 = alloca i64, align 8
  %6 = alloca ptr, align 8
  store i64 %0, ptr %4, align 8, !tbaa !9
  store i64 %1, ptr %5, align 8, !tbaa !9
  store ptr %2, ptr %6, align 8, !tbaa !16
  %7 = load i64, ptr %5, align 8, !tbaa !9
  %8 = load i64, ptr %4, align 8, !tbaa !9
  %9 = icmp ugt i64 %7, %8
  br i1 %9, label %10, label %14

10:                                               ; preds = %3
  %11 = load ptr, ptr %6, align 8, !tbaa !16
  %12 = load i32, ptr %11, align 4, !tbaa !13
  %13 = or i32 %12, 1
  store i32 %13, ptr %11, align 4, !tbaa !13
  br label %14

14:                                               ; preds = %10, %3
  %15 = load i64, ptr %4, align 8, !tbaa !9
  %16 = load i64, ptr %5, align 8, !tbaa !9
  %17 = sub i64 %15, %16
  ret i64 %17
}

; Function Attrs: inlinehint nounwind uwtable
define internal i64 @ossl_time2ticks(i64 %0) #4 {
  %2 = alloca %struct.OSSL_TIME, align 8
  %3 = getelementptr inbounds nuw %struct.OSSL_TIME, ptr %2, i32 0, i32 0
  store i64 %0, ptr %3, align 8
  %4 = getelementptr inbounds nuw %struct.OSSL_TIME, ptr %2, i32 0, i32 0
  %5 = load i64, ptr %4, align 8, !tbaa !11
  ret i64 %5
}

; Function Attrs: inlinehint nounwind uwtable
define internal i64 @ossl_time_subtract(i64 %0, i64 %1) #4 {
  %3 = alloca %struct.OSSL_TIME, align 8
  %4 = alloca %struct.OSSL_TIME, align 8
  %5 = alloca %struct.OSSL_TIME, align 8
  %6 = alloca %struct.OSSL_TIME, align 8
  %7 = alloca i32, align 4
  %8 = getelementptr inbounds nuw %struct.OSSL_TIME, ptr %4, i32 0, i32 0
  store i64 %0, ptr %8, align 8
  %9 = getelementptr inbounds nuw %struct.OSSL_TIME, ptr %5, i32 0, i32 0
  store i64 %1, ptr %9, align 8
  call void @llvm.lifetime.start.p0(i64 8, ptr %6) #6
  call void @llvm.lifetime.start.p0(i64 4, ptr %7) #6
  store i32 0, ptr %7, align 4, !tbaa !13
  %10 = getelementptr inbounds nuw %struct.OSSL_TIME, ptr %4, i32 0, i32 0
  %11 = load i64, ptr %10, align 8, !tbaa !11
  %12 = getelementptr inbounds nuw %struct.OSSL_TIME, ptr %5, i32 0, i32 0
  %13 = load i64, ptr %12, align 8, !tbaa !11
  %14 = call i64 @safe_sub_time(i64 noundef %11, i64 noundef %13, ptr noundef %7)
  %15 = getelementptr inbounds nuw %struct.OSSL_TIME, ptr %6, i32 0, i32 0
  store i64 %14, ptr %15, align 8, !tbaa !11
  %16 = load i32, ptr %7, align 4, !tbaa !13
  %17 = icmp ne i32 %16, 0
  br i1 %17, label %18, label %21

18:                                               ; preds = %2
  %19 = call i64 @ossl_time_zero()
  %20 = getelementptr inbounds nuw %struct.OSSL_TIME, ptr %3, i32 0, i32 0
  store i64 %19, ptr %20, align 8
  br label %22

21:                                               ; preds = %2
  call void @llvm.memcpy.p0.p0.i64(ptr align 8 %3, ptr align 8 %6, i64 8, i1 false), !tbaa.struct !15
  br label %22

22:                                               ; preds = %21, %18
  call void @llvm.lifetime.end.p0(i64 4, ptr %7) #6
  call void @llvm.lifetime.end.p0(i64 8, ptr %6) #6
  %23 = getelementptr inbounds nuw %struct.OSSL_TIME, ptr %3, i32 0, i32 0
  %24 = load i64, ptr %23, align 8
  ret i64 %24
}

; Function Attrs: nounwind uwtable
define internal i32 @test_sanity_sleep() #0 {
  %1 = alloca i32, align 4
  %2 = alloca %struct.OSSL_TIME, align 8
  %3 = alloca i64, align 8
  %4 = alloca %struct.OSSL_TIME, align 8
  %5 = alloca %struct.OSSL_TIME, align 8
  %6 = alloca i32, align 4
  call void @llvm.lifetime.start.p0(i64 8, ptr %2) #6
  %7 = call i64 @ossl_time_now()
  %8 = getelementptr inbounds nuw %struct.OSSL_TIME, ptr %2, i32 0, i32 0
  store i64 %7, ptr %8, align 8
  call void @llvm.lifetime.start.p0(i64 8, ptr %3) #6
  call void @OSSL_sleep(i64 noundef 1000)
  %9 = call i64 @ossl_time_now()
  %10 = getelementptr inbounds nuw %struct.OSSL_TIME, ptr %5, i32 0, i32 0
  store i64 %9, ptr %10, align 8
  %11 = getelementptr inbounds nuw %struct.OSSL_TIME, ptr %5, i32 0, i32 0
  %12 = load i64, ptr %11, align 8
  %13 = getelementptr inbounds nuw %struct.OSSL_TIME, ptr %2, i32 0, i32 0
  %14 = load i64, ptr %13, align 8
  %15 = call i64 @ossl_time_subtract(i64 %12, i64 %14)
  %16 = getelementptr inbounds nuw %struct.OSSL_TIME, ptr %4, i32 0, i32 0
  store i64 %15, ptr %16, align 8
  %17 = getelementptr inbounds nuw %struct.OSSL_TIME, ptr %4, i32 0, i32 0
  %18 = load i64, ptr %17, align 8
  %19 = call i64 @ossl_time2ticks(i64 %18)
  %20 = udiv i64 %19, 1000000000
  store i64 %20, ptr %3, align 8, !tbaa !9
  %21 = load i64, ptr %3, align 8, !tbaa !9
  %22 = call i32 @test_uint64_t_ge(ptr noundef @.str.8, i32 noundef 147, ptr noundef @.str.51, ptr noundef @.str.28, i64 noundef %21, i64 noundef 1)
  %23 = icmp ne i32 %22, 0
  br i1 %23, label %24, label %28

24:                                               ; preds = %0
  %25 = load i64, ptr %3, align 8, !tbaa !9
  %26 = call i32 @test_uint64_t_le(ptr noundef @.str.8, i32 noundef 147, ptr noundef @.str.51, ptr noundef @.str.52, i64 noundef %25, i64 noundef 20)
  %27 = icmp ne i32 %26, 0
  br i1 %27, label %29, label %28

28:                                               ; preds = %24, %0
  store i32 0, ptr %1, align 4
  store i32 1, ptr %6, align 4
  br label %30

29:                                               ; preds = %24
  store i32 1, ptr %1, align 4
  store i32 1, ptr %6, align 4
  br label %30

30:                                               ; preds = %29, %28
  call void @llvm.lifetime.end.p0(i64 8, ptr %3) #6
  call void @llvm.lifetime.end.p0(i64 8, ptr %2) #6
  %31 = load i32, ptr %1, align 4
  ret i32 %31
}