; Function Attrs: nounwind uwtable
define internal range(i32 0, 2) i32 @test_sanity_sleep() #0 {
  %1 = tail call i64 @ossl_time_now() #4
  tail call void @OSSL_sleep(i64 noundef 1000) #4
  %2 = tail call i64 @ossl_time_now() #4
  %..i = tail call i64 @llvm.usub.sat.i64(i64 %2, i64 %1)
  %3 = udiv i64 %..i, 1000000000
  %4 = tail call i32 @test_uint64_t_ge(ptr noundef nonnull @.str.8, i32 noundef 147, ptr noundef nonnull @.str.51, ptr noundef nonnull @.str.28, i64 noundef %3, i64 noundef 1) #4
  %.not = icmp eq i32 %4, 0
  br i1 %.not, label %7, label %5

5:                                                ; preds = %0
  %6 = tail call i32 @test_uint64_t_le(ptr noundef nonnull @.str.8, i32 noundef 147, ptr noundef nonnull @.str.51, ptr noundef nonnull @.str.52, i64 noundef %3, i64 noundef 20) #4
  %.not5 = icmp ne i32 %6, 0
  %spec.select = zext i1 %.not5 to i32
  br label %7

7:                                                ; preds = %5, %0
  %.0 = phi i32 [ 0, %0 ], [ %spec.select, %5 ]
  ret i32 %.0
}